target datalayout = "e-m:e-p270:32:32-p271:32:32-p272:64:64-i64:64-i128:128-f80:128-n8:16:32:64-S128"
target triple = "x86_64-pc-linux-gnu"

; Function Attrs: nounwind uwtable
define internal void @gather_int32_4(ptr noundef %0, ptr noundef %1, i64 noundef %2, i64 noundef %3, i64 noundef %4, i64 noundef %5) #0 {
  %7 = alloca ptr, align 8
  %8 = alloca ptr, align 8
  %9 = alloca i64, align 8
  %10 = alloca i64, align 8
  %11 = alloca i64, align 8
  %12 = alloca i64, align 8
  %13 = alloca i32, align 4
  %14 = alloca i32, align 4
  %15 = alloca i32, align 4
  %16 = alloca i32, align 4
  store ptr %0, ptr %7, align 8, !tbaa !8
  store ptr %1, ptr %8, align 8, !tbaa !8
  store i64 %2, ptr %9, align 8, !tbaa !24
  store i64 %3, ptr %10, align 8, !tbaa !24
  store i64 %4, ptr %11, align 8, !tbaa !24
  store i64 %5, ptr %12, align 8, !tbaa !24
  call void @llvm.lifetime.start.p0(i64 4, ptr %13) #4
  call void @llvm.lifetime.start.p0(i64 4, ptr %14) #4
  call void @llvm.lifetime.start.p0(i64 4, ptr %15) #4
  call void @llvm.lifetime.start.p0(i64 4, ptr %16) #4
  store i32 0, ptr %16, align 4, !tbaa !10
  br label %17

17:                                               ; preds = %64, %6
  %18 = load i32, ptr %16, align 4, !tbaa !10
  %19 = icmp ult i32 %18, 4
  br i1 %19, label %20, label %73

20:                                               ; preds = %17
  store i32 0, ptr %15, align 4, !tbaa !10
  br label %21

21:                                               ; preds = %54, %20
  %22 = load i32, ptr %15, align 4, !tbaa !10
  %23 = icmp ult i32 %22, 4
  br i1 %23, label %24, label %63

24:                                               ; preds = %21
  store i32 0, ptr %14, align 4, !tbaa !10
  br label %25

25:                                               ; preds = %44, %24
  %26 = load i32, ptr %14, align 4, !tbaa !10
  %27 = icmp ult i32 %26, 4
  br i1 %27, label %28, label %53

28:                                               ; preds = %25
  store i32 0, ptr %13, align 4, !tbaa !10
  br label %29

29:                                               ; preds = %37, %28
  %30 = load i32, ptr %13, align 4, !tbaa !10
  %31 = icmp ult i32 %30, 4
  br i1 %31, label %32, label %43

32:                                               ; preds = %29
  %33 = load ptr, ptr %8, align 8, !tbaa !8
  %34 = load i32, ptr %33, align 4, !tbaa !10
  %35 = load ptr, ptr %7, align 8, !tbaa !8
  %36 = getelementptr inbounds nuw i32, ptr %35, i32 1
  store ptr %36, ptr %7, align 8, !tbaa !8
  store i32 %34, ptr %35, align 4, !tbaa !10
  br label %37

37:                                               ; preds = %32
  %38 = load i32, ptr %13, align 4, !tbaa !10
  %39 = add i32 %38, 1
  store i32 %39, ptr %13, align 4, !tbaa !10
  %40 = load i64, ptr %9, align 8, !tbaa !24
  %41 = load ptr, ptr %8, align 8, !tbaa !8
  %42 = getelementptr inbounds i32, ptr %41, i64 %40
  store ptr %42, ptr %8, align 8, !tbaa !8
  br label %29

43:                                               ; preds = %29
  br label %44

44:                                               ; preds = %43
  %45 = load i32, ptr %14, align 4, !tbaa !10
  %46 = add i32 %45, 1
  store i32 %46, ptr %14, align 4, !tbaa !10
  %47 = load i64, ptr %10, align 8, !tbaa !24
  %48 = load i64, ptr %9, align 8, !tbaa !24
  %49 = mul nsw i64 4, %48
  %50 = sub nsw i64 %47, %49
  %51 = load ptr, ptr %8, align 8, !tbaa !8
  %52 = getelementptr inbounds i32, ptr %51, i64 %50
  store ptr %52, ptr %8, align 8, !tbaa !8
  br label %25

53:                                               ; preds = %25
  br label %54

54:                                               ; preds = %53
  %55 = load i32, ptr %15, align 4, !tbaa !10
  %56 = add i32 %55, 1
  store i32 %56, ptr %15, align 4, !tbaa !10
  %57 = load i64, ptr %11, align 8, !tbaa !24
  %58 = load i64, ptr %10, align 8, !tbaa !24
  %59 = mul nsw i64 4, %58
  %60 = sub nsw i64 %57, %59
  %61 = load ptr, ptr %8, align 8, !tbaa !8
  %62 = getelementptr inbounds i32, ptr %61, i64 %60
  store ptr %62, ptr %8, align 8, !tbaa !8
  br label %21

63:                                               ; preds = %21
  br label %64

64:                                               ; preds = %63
  %65 = load i32, ptr %16, align 4, !tbaa !10
  %66 = add i32 %65, 1
  store i32 %66, ptr %16, align 4, !tbaa !10
  %67 = load i64, ptr %12, align 8, !tbaa !24
  %68 = load i64, ptr %11, align 8, !tbaa !24
  %69 = mul nsw i64 4, %68
  %70 = sub nsw i64 %67, %69
  %71 = load ptr, ptr %8, align 8, !tbaa !8
  %72 = getelementptr inbounds i32, ptr %71, i64 %70
  store ptr %72, ptr %8, align 8, !tbaa !8
  br label %17

73:                                               ; preds = %17
  call void @llvm.lifetime.end.p0(i64 4, ptr %16) #4
  call void @llvm.lifetime.end.p0(i64 4, ptr %15) #4
  call void @llvm.lifetime.end.p0(i64 4, ptr %14) #4
  call void @llvm.lifetime.end.p0(i64 4, ptr %13) #4
  ret void
}

; Function Attrs: nounwind uwtable
define i64 @zfp_encode_block_strided_int32_4(ptr noundef %0, ptr noundef %1, i64 noundef %2, i64 noundef %3, i64 noundef %4, i64 noundef %5) #0 {
  %7 = alloca ptr, align 8
  %8 = alloca ptr, align 8
  %9 = alloca i64, align 8
  %10 = alloca i64, align 8
  %11 = alloca i64, align 8
  %12 = alloca i64, align 8
  %13 = alloca [256 x i32], align 256
  store ptr %0, ptr %7, align 8, !tbaa !4
  store ptr %1, ptr %8, align 8, !tbaa !8
  store i64 %2, ptr %9, align 8, !tbaa !24
  store i64 %3, ptr %10, align 8, !tbaa !24
  store i64 %4, ptr %11, align 8, !tbaa !24
  store i64 %5, ptr %12, align 8, !tbaa !24
  call void @llvm.lifetime.start.p0(i64 1024, ptr %13) #4
  %14 = getelementptr inbounds [256 x i32], ptr %13, i64 0, i64 0
  %15 = load ptr, ptr %8, align 8, !tbaa !8
  %16 = load i64, ptr %9, align 8, !tbaa !24
  %17 = load i64, ptr %10, align 8, !tbaa !24
  %18 = load i64, ptr %11, align 8, !tbaa !24
  %19 = load i64, ptr %12, align 8, !tbaa !24
  call void @gather_int32_4(ptr noundef %14, ptr noundef %15, i64 noundef %16, i64 noundef %17, i64 noundef %18, i64 noundef %19)
  %20 = load ptr, ptr %7, align 8, !tbaa !4
  %21 = getelementptr inbounds [256 x i32], ptr %13, i64 0, i64 0
  %22 = call i64 @zfp_encode_block_int32_4(ptr noundef %20, ptr noundef %21)
  call void @llvm.lifetime.end.p0(i64 1024, ptr %13) #4
  ret i64 %22
}